; Function Attrs: mustprogress uwtable
define void @_ZNK27NumericValueChooserDelegate13setEditorDataEP7QWidgetRK11QModelIndex(ptr noundef nonnull align 8 dereferenceable(64) %0, ptr noundef %1, ptr noundef nonnull align 8 dereferenceable(24) %2) unnamed_addr #0 align 2 personality ptr @__gxx_personality_v0 {
  %4 = alloca i8, align 1
  %5 = alloca %class.QVariant, align 8
  %6 = load i32, ptr %2, align 8
  %7 = icmp sgt i32 %6, -1
  %8 = getelementptr inbounds i8, ptr %2, i64 4
  %9 = load i32, ptr %8, align 4
  %10 = icmp sgt i32 %9, -1
  %or.cond.i = select i1 %7, i1 %10, i1 false
  %11 = getelementptr inbounds i8, ptr %2, i64 16
  %12 = load ptr, ptr %11, align 8
  %13 = icmp ne ptr %12, null
  %or.cond = select i1 %or.cond.i, i1 %13, i1 false
  br i1 %or.cond, label %_ZNK11QModelIndex4dataEi.exit, label %_ZNK11QModelIndex7isValidEv.exit.thread

_ZNK11QModelIndex4dataEi.exit:                    ; preds = %3
  store i8 0, ptr %4, align 1
  %14 = load ptr, ptr %12, align 8, !noalias !7
  %15 = getelementptr inbounds i8, ptr %14, i64 144
  %16 = load ptr, ptr %15, align 8, !noalias !7
  call void %16(ptr dead_on_unwind nonnull writable sret(%class.QVariant) align 8 %5, ptr noundef nonnull align 8 dereferenceable(16) %12, ptr noundef nonnull align 8 dereferenceable(24) %2, i32 noundef 0)
  %17 = invoke noundef i32 @_ZNK8QVariant5toIntEPb(ptr noundef nonnull align 8 dereferenceable(32) %5, ptr noundef nonnull %4)
          to label %18 unwind label %24

18:                                               ; preds = %_ZNK11QModelIndex4dataEi.exit
  call void @_ZN8QVariantD1Ev(ptr noundef nonnull align 8 dereferenceable(32) %5) #10
  %19 = load i8, ptr %4, align 1
  %20 = and i8 %19, 1
  %.not = icmp eq i8 %20, 0
  %21 = getelementptr inbounds i8, ptr %0, i64 24
  %22 = load i32, ptr %21, align 8
  %.0 = select i1 %.not, i32 %22, i32 %17
  %23 = call noundef ptr @_ZNK11QMetaObject4castEPK7QObject(ptr noundef nonnull align 8 dereferenceable(56) @_ZN8QSpinBox16staticMetaObjectE, ptr noundef %1)
  call void @_ZN8QSpinBox8setValueEi(ptr noundef nonnull align 8 dereferenceable(40) %23, i32 noundef %.0)
  br label %26

24:                                               ; preds = %_ZNK11QModelIndex4dataEi.exit
  %25 = landingpad { ptr, i32 }
          cleanup
  call void @_ZN8QVariantD1Ev(ptr noundef nonnull align 8 dereferenceable(32) %5) #10
  resume { ptr, i32 } %25

_ZNK11QModelIndex7isValidEv.exit.thread:          ; preds = %3
  tail call void @_ZNK19QStyledItemDelegate13setEditorDataEP7QWidgetRK11QModelIndex(ptr noundef nonnull align 8 dereferenceable(16) %0, ptr noundef %1, ptr noundef nonnull align 8 dereferenceable(24) %2)
  br label %26

26:                                               ; preds = %_ZNK11QModelIndex7isValidEv.exit.thread, %18
  ret void
}